Certificate:
    Data:
        Version: 1 (0x0)
        Serial Number: 12484131609667110782 (0xad408b8e236f077e)
    Signature Algorithm: sha256WithRSAEncryption
        Issuer: C=KO, ST=SEOUL, O=SECUI, OU=Development, CN=testsslvpn.net/emailAddress=aaa@test.secui.com
        Validity
            Not Before: Jul 17 09:10:38 2020 GMT
            Not After : Jul 15 09:10:38 2030 GMT
        Subject: C=KO, ST=SEOUL, O=SECUI, OU=Development, CN=testsslvpn.net/emailAddress=aaa@test.secui.com
        Subject Public Key Info:
            Public Key Algorithm: rsaEncryption
                Public-Key: (2048 bit)
                Modulus:
                    00:cd:15:31:82:f0:5d:7e:bf:29:f6:62:78:83:dc:
                    6e:e4:66:21:d5:48:5a:82:84:51:d4:ae:7b:bd:e6:
                    ca:d0:8a:17:89:91:2f:8f:76:7f:2e:27:af:93:77:
                    32:31:02:1e:da:0e:f4:48:3c:a3:37:45:bc:c9:f0:
                    e6:cc:fb:4f:c7:c1:fc:18:05:e3:e6:46:3f:21:4d:
                    77:0e:ae:ed:89:c2:38:85:c8:09:0f:52:dd:89:b4:
                    38:94:72:a7:f4:3f:79:54:07:9b:b2:f5:c7:1c:7e:
                    e5:90:a3:89:43:9a:35:c7:90:ed:04:66:7b:78:89:
                    5b:47:42:08:06:19:7a:56:a6:08:6c:34:11:2d:a7:
                    b1:3d:2c:b9:c7:05:74:85:5f:f2:35:7f:2d:ab:c9:
                    a0:6d:23:7d:19:b1:dc:3b:0c:07:f4:a0:57:5b:e9:
                    46:21:21:36:8c:f6:bf:6d:85:44:6a:21:58:29:1a:
                    2f:8f:94:a4:5d:fb:4a:b4:70:66:c7:ea:0a:1d:b1:
                    30:a8:33:1b:1d:d0:d4:8f:61:c0:23:26:56:8f:fa:
                    f7:7f:94:49:bc:7e:b5:95:f5:82:95:ed:98:db:f0:
                    bf:b0:39:c5:d4:75:10:9b:19:05:3e:c3:eb:bf:75:
                    43:32:20:ba:77:de:7a:c7:8e:64:0f:a5:59:f2:eb:
                    c4:a9
                Exponent: 65537 (0x10001)
    Signature Algorithm: sha256WithRSAEncryption
         75:80:d5:01:16:e8:22:8d:49:0c:58:5f:0d:96:14:ff:0d:f1:
         a0:a2:70:f0:2f:ba:c3:a5:0b:08:e3:0e:2d:08:58:33:b5:28:
         88:da:64:67:dd:a7:70:e5:9b:75:01:66:1a:bb:ef:e4:22:c7:
         b0:88:ad:ea:36:fb:ae:a5:d2:b6:0e:be:75:d5:b3:31:1e:81:
         d2:55:c1:43:5f:41:77:d4:fb:de:5d:d7:fe:07:cf:90:9d:05:
         57:2b:17:c8:10:cf:0d:f9:6a:47:ee:0f:2a:28:d7:5b:fd:12:
         97:87:ac:aa:59:35:46:74:db:8d:7a:09:49:a0:49:87:4c:51:
         4c:cd:83:3f:9d:0d:cf:3d:c7:c4:1e:87:65:d0:15:0b:c5:63:
         2b:60:e8:d4:7a:c3:87:94:be:7c:3c:a5:68:26:e8:62:fa:65:
         e6:79:2b:ae:39:25:28:2c:bf:b9:b5:1e:3e:b0:c7:b1:01:71:
         4e:35:71:a7:c1:32:da:f2:36:78:9d:0f:fb:02:c5:5b:e2:5d:
         12:3f:29:79:c9:50:b5:e0:c4:28:9d:34:a3:26:9a:e9:a1:0d:
         b5:e0:84:a2:1a:f6:ce:21:81:f6:e6:a7:28:04:d6:d6:78:0d:
         0a:13:3c:7b:9b:0f:c4:cf:14:f3:14:e0:2e:2a:c8:5b:0c:16:
         ab:58:2f:87
-----BEGIN CERTIFICATE-----
MIIDejCCAmICCQCtQIuOI28HfjANBgkqhkiG9w0BAQsFADB/MQswCQYDVQQGEwJL
TzEOMAwGA1UECAwFU0VPVUwxDjAMBgNVBAoMBVNFQ1VJMRQwEgYDVQQLDAtEZXZl
bG9wbWVudDEXMBUGA1UEAwwOdGVzdHNzbHZwbi5uZXQxITAfBgkqhkiG9w0BCQEW
EmFhYUB0ZXN0LnNlY3VpLmNvbTAeFw0yMDA3MTcwOTEwMzhaFw0zMDA3MTUwOTEw
MzhaMH8xCzAJBgNVBAYTAktPMQ4wDAYDVQQIDAVTRU9VTDEOMAwGA1UECgwFU0VD
VUkxFDASBgNVBAsMC0RldmVsb3BtZW50MRcwFQYDVQQDDA50ZXN0c3NsdnBuLm5l
dDEhMB8GCSqGSIb3DQEJARYSYWFhQHRlc3Quc2VjdWkuY29tMIIBIjANBgkqhkiG
9w0BAQEFAAOCAQ8AMIIBCgKCAQEAzRUxgvBdfr8p9mJ4g9xu5GYh1UhagoRR1K57
vebK0IoXiZEvj3Z/Lievk3cyMQIe2g70SDyjN0W8yfDmzPtPx8H8GAXj5kY/IU13
Dq7ticI4hcgJD1LdibQ4lHKn9D95VAebsvXHHH7lkKOJQ5o1x5DtBGZ7eIlbR0II
Bhl6VqYIbDQRLaexPSy5xwV0hV/yNX8tq8mgbSN9GbHcOwwH9KBXW+lGISE2jPa/
bYVEaiFYKRovj5SkXftKtHBmx+oKHbEwqDMbHdDUj2HAIyZWj/r3f5RJvH61lfWC
le2Y2/C/sDnF1HUQmxkFPsPrv3VDMiC6d956x45kD6VZ8uvEqQIDAQABMA0GCSqG
SIb3DQEBCwUAA4IBAQB1gNUBFugijUkMWF8NlhT/DfGgonDwL7rDpQsI4w4tCFgz
tSiI2mRn3adw5Zt1AWYau+/kIsewiK3qNvuupdK2Dr511bMxHoHSVcFDX0F31Pve
Xdf+B8+QnQVXKxfIEM8N+WpH7g8qKNdb/RKXh6yqWTVGdNuNeglJoEmHTFFMzYM/
nQ3PPcfEHodl0BULxWMrYOjUesOHlL58PKVoJuhi+mXmeSuuOSUoLL+5tR4+sMex
AXFONXGnwTLa8jZ4nQ/7AsVb4l0SPyl5yVC14MQonTSjJprpoQ214ISiGvbOIYH2
5qcoBNbWeA0KEzx7mw/EzxTzFOAuKshbDBarWC+H
-----END CERTIFICATE-----
